Certificate:
    Data:
        Version: 3 (0x2)
        Serial Number: 1 (0x1)
        Signature Algorithm: sha256WithRSAEncryption
        Issuer: O=Test Org, CN=Test Org rauc CA Development
        Validity
            Not Before: Jan  1 00:00:00 1970 GMT
            Not After : Dec 31 23:59:59 9999 GMT
        Subject: O=Test Org, CN=Test Org rauc CA Development
        Subject Public Key Info:
            Public Key Algorithm: rsaEncryption
                Public-Key: (2048 bit)
                Modulus:
                    00:db:3a:12:ee:27:74:da:4e:19:5f:75:37:95:93:
                    95:29:8e:eb:bf:e7:5f:7d:9e:e0:9f:40:d0:f1:0f:
                    b3:3f:8c:82:f1:fb:88:12:24:6b:8c:8b:0e:15:43:
                    7f:35:ca:e5:5b:0a:2c:85:3b:f2:78:23:a7:18:38:
                    63:e6:cb:47:a4:01:d5:2c:7a:77:f7:bb:69:ca:cc:
                    bb:2b:a4:d6:f1:d2:5a:10:6d:dd:4c:30:e2:3e:2e:
                    58:23:36:e7:07:de:8c:70:1f:cd:87:0c:fd:ef:86:
                    12:df:db:ba:44:af:a4:41:d7:59:6e:25:da:1c:33:
                    af:ac:9d:04:aa:85:c1:f4:9a:e9:ef:de:3f:58:c2:
                    9a:78:da:30:88:0a:e0:6b:f6:09:7e:61:e6:00:1b:
                    4e:ac:2a:c1:ee:c0:7f:eb:6f:06:2f:9a:3b:ba:13:
                    7b:e5:c1:44:96:9b:fc:9c:8c:91:8a:0d:92:ef:96:
                    23:66:8f:80:8c:4f:7a:a3:3c:ae:c5:0b:63:c6:3e:
                    a5:5a:70:ad:11:b0:28:b0:e1:a5:5c:d2:2e:80:ae:
                    ab:23:d2:94:bf:77:b6:0d:3c:28:ee:4b:ed:32:f0:
                    c6:8d:43:c1:ba:a3:7b:e1:7f:6e:59:25:2a:56:68:
                    6a:f0:4b:f3:9a:95:c6:b8:e2:54:1e:51:b6:d5:88:
                    fe:59
                Exponent: 65537 (0x10001)
        X509v3 extensions:
            X509v3 Subject Key Identifier: 
                6A:07:53:33:07:F0:07:5D:43:F0:12:09:E5:3E:9C:6F:9A:DD:27:F0
            X509v3 Authority Key Identifier: 
                keyid:6A:07:53:33:07:F0:07:5D:43:F0:12:09:E5:3E:9C:6F:9A:DD:27:F0
                DirName:/O=Test Org/CN=Test Org rauc CA Development
                serial:01
            X509v3 Basic Constraints: 
                CA:TRUE
    Signature Algorithm: sha256WithRSAEncryption
    Signature Value:
        b2:b2:b7:18:f7:46:20:a0:b0:5f:f9:bc:20:5c:4c:cb:d9:34:
        6e:79:4f:dc:5d:31:c7:4c:c6:32:95:4a:79:cc:65:5b:ee:c1:
        70:77:cb:95:49:df:86:73:45:84:0d:09:a0:ae:1e:ed:8f:46:
        2d:df:f0:b3:24:f1:44:91:9e:a3:f0:74:bd:48:65:13:e8:7a:
        d5:13:83:78:30:4a:01:9f:3f:8d:5d:9e:23:5a:af:f5:c4:c8:
        be:f3:38:c2:ae:2c:4f:89:be:45:c1:5b:04:9f:14:10:7f:09:
        4d:43:ad:51:e6:76:21:67:fd:7f:c9:cb:0c:ea:d4:0e:1d:39:
        ac:fa:ee:dc:53:c4:27:d0:87:15:c4:4e:e0:2c:34:33:9a:23:
        a4:8c:3f:7c:b9:dc:09:8d:ff:28:4b:aa:2d:65:7a:43:32:2f:
        d6:e5:ce:e3:de:aa:31:45:31:4b:83:91:ca:a7:95:ed:a0:0b:
        4f:5b:fc:68:b6:07:9e:77:2f:1a:32:df:29:5d:65:38:96:40:
        92:89:86:be:dd:7d:d2:49:a4:70:03:ee:2a:eb:b2:c2:dd:a7:
        76:67:79:0c:e0:9e:44:65:c5:84:bc:e2:dc:4e:b3:6d:24:78:
        cf:d9:2e:46:9a:04:53:b4:58:4b:cf:38:d5:92:90:c6:a9:7f:
        9c:27:b8:56
-----BEGIN CERTIFICATE-----
MIIDhjCCAm6gAwIBAgIBATANBgkqhkiG9w0BAQsFADA6MREwDwYDVQQKDAhUZXN0
IE9yZzElMCMGA1UEAwwcVGVzdCBPcmcgcmF1YyBDQSBEZXZlbG9wbWVudDAgFw03
MDAxMDEwMDAwMDBaGA85OTk5MTIzMTIzNTk1OVowOjERMA8GA1UECgwIVGVzdCBP
cmcxJTAjBgNVBAMMHFRlc3QgT3JnIHJhdWMgQ0EgRGV2ZWxvcG1lbnQwggEiMA0G
CSqGSIb3DQEBAQUAA4IBDwAwggEKAoIBAQDbOhLuJ3TaThlfdTeVk5Upjuu/5199
nuCfQNDxD7M/jILx+4gSJGuMiw4VQ381yuVbCiyFO/J4I6cYOGPmy0ekAdUsenf3
u2nKzLsrpNbx0loQbd1MMOI+LlgjNucH3oxwH82HDP3vhhLf27pEr6RB11luJdoc
M6+snQSqhcH0munv3j9Ywpp42jCICuBr9gl+YeYAG06sKsHuwH/rbwYvmju6E3vl
wUSWm/ycjJGKDZLvliNmj4CMT3qjPK7FC2PGPqVacK0RsCiw4aVc0i6Arqsj0pS/
d7YNPCjuS+0y8MaNQ8G6o3vhf25ZJSpWaGrwS/Oalca44lQeUbbViP5ZAgMBAAGj
gZQwgZEwHQYDVR0OBBYEFGoHUzMH8AddQ/ASCeU+nG+a3SfwMGIGA1UdIwRbMFmA
FGoHUzMH8AddQ/ASCeU+nG+a3SfwoT6kPDA6MREwDwYDVQQKDAhUZXN0IE9yZzEl
MCMGA1UEAwwcVGVzdCBPcmcgcmF1YyBDQSBEZXZlbG9wbWVudIIBATAMBgNVHRME
BTADAQH/MA0GCSqGSIb3DQEBCwUAA4IBAQCysrcY90YgoLBf+bwgXEzL2TRueU/c
XTHHTMYylUp5zGVb7sFwd8uVSd+Gc0WEDQmgrh7tj0Yt3/CzJPFEkZ6j8HS9SGUT
6HrVE4N4MEoBnz+NXZ4jWq/1xMi+8zjCrixPib5FwVsEnxQQfwlNQ61R5nYhZ/1/
ycsM6tQOHTms+u7cU8Qn0IcVxE7gLDQzmiOkjD98udwJjf8oS6otZXpDMi/W5c7j
3qoxRTFLg5HKp5XtoAtPW/xotgeedy8aMt8pXWU4lkCSiYa+3X3SSaRwA+4q67LC
3ad2Z3kM4J5EZcWEvOLcTrNtJHjP2S5GmgRTtFhLzzjVkpDGqX+cJ7hW
-----END CERTIFICATE-----
