Certificate:
    Data:
        Version: 3 (0x2)
        Serial Number: 2 (0x2)
        Signature Algorithm: sha256WithRSAEncryption
        Issuer: O=Test Org, CN=Test Org rauc CA Development
        Validity
            Not Before: Jan  1 00:00:00 1970 GMT
            Not After : Dec 31 23:59:59 9999 GMT
        Subject: O=Test Org, CN=Test Org Development-1
        Subject Public Key Info:
            Public Key Algorithm: rsaEncryption
                Public-Key: (2048 bit)
                Modulus:
                    00:b6:93:84:33:f7:2f:7e:0c:38:27:e1:b2:63:77:
                    3e:77:38:c3:1b:8d:ca:57:29:b5:82:93:83:27:21:
                    6d:ae:7d:42:ec:40:13:8c:35:a3:8c:d1:77:b3:6c:
                    bd:1f:49:f6:58:06:b0:0a:9b:73:03:76:53:19:73:
                    37:21:f4:3c:f8:a6:12:8f:b4:42:c6:e3:47:81:e3:
                    19:e2:ff:12:9b:9b:f6:cd:27:0a:12:0f:cd:ca:f2:
                    ab:49:25:3f:07:69:78:d7:fd:1a:fb:ce:ff:c2:b4:
                    3f:d9:fe:34:45:75:e3:3d:df:f2:d3:c0:fe:6c:cc:
                    4a:c3:7e:3f:e9:60:66:96:6e:b2:07:bc:e2:bd:c1:
                    b8:b4:47:b5:c5:03:14:dc:3b:1f:04:6e:12:21:d4:
                    96:0e:43:60:84:c1:64:9e:6a:8d:2b:d5:98:e4:10:
                    b5:c5:8a:86:f7:38:49:57:23:ca:3d:41:37:57:ad:
                    b0:f9:c3:66:b3:8d:06:a1:88:8f:c6:3f:98:9c:dc:
                    ba:6b:e8:ca:e5:fa:d3:3b:0d:a7:29:57:24:e0:48:
                    67:83:f1:e9:a1:73:44:c7:7d:6a:05:78:fa:1f:15:
                    82:24:f7:98:d9:06:ef:5f:5a:90:65:7d:5a:23:12:
                    ae:b8:61:c8:0c:c9:c5:0a:4c:25:92:ab:cc:4e:e8:
                    62:e1
                Exponent: 65537 (0x10001)
        X509v3 extensions:
            X509v3 Subject Key Identifier: 
                2C:FA:7D:05:BD:7F:DE:F5:00:50:A1:42:73:EA:11:E3:73:09:81:85
            X509v3 Authority Key Identifier: 
                keyid:6A:07:53:33:07:F0:07:5D:43:F0:12:09:E5:3E:9C:6F:9A:DD:27:F0
                DirName:/O=Test Org/CN=Test Org rauc CA Development
                serial:01
            X509v3 Basic Constraints: 
                CA:FALSE
    Signature Algorithm: sha256WithRSAEncryption
    Signature Value:
        81:2a:62:3a:74:75:57:59:54:33:69:dd:4c:1b:b4:79:a2:32:
        2b:30:5b:7e:c4:29:3b:e1:41:52:2e:c2:ae:68:e8:02:01:34:
        8f:0a:06:f7:7f:ba:f6:e4:2b:69:64:7d:58:b8:af:60:a2:51:
        8e:5f:e9:54:35:81:24:e5:73:de:5a:8c:16:ae:95:5a:c7:70:
        92:ba:8b:2d:ae:f0:42:a5:54:56:2d:d9:52:18:ff:97:1d:63:
        a0:d3:4e:74:2e:1f:bf:fe:52:61:c4:ba:14:23:4a:23:a9:61:
        fa:b0:a0:c1:8c:7d:f4:3b:ae:4d:2e:de:7b:ce:6f:f2:c0:dd:
        b1:5e:4f:61:52:c6:7f:80:e4:bc:ac:03:ef:be:cc:cf:31:b1:
        c2:ba:e2:f8:ad:6d:01:8f:c1:e9:e5:ec:23:33:41:77:84:da:
        c1:1c:3c:a6:0c:8b:4d:05:57:f1:da:15:90:51:a3:70:98:a9:
        44:c9:df:ae:a9:72:5f:5a:4d:62:20:e6:c2:1e:53:2e:76:ca:
        24:dc:b4:6a:ab:d6:9c:cd:90:24:86:20:dc:b9:3a:cc:26:fa:
        0f:f6:ae:66:af:30:26:e1:09:f8:77:9d:ba:97:6e:08:d0:4c:
        8b:12:ed:cc:ef:c2:2c:02:de:a4:d4:cd:80:75:b2:a2:83:6c:
        2c:25:5c:20
-----BEGIN CERTIFICATE-----
MIIDfTCCAmWgAwIBAgIBAjANBgkqhkiG9w0BAQsFADA6MREwDwYDVQQKDAhUZXN0
IE9yZzElMCMGA1UEAwwcVGVzdCBPcmcgcmF1YyBDQSBEZXZlbG9wbWVudDAgFw03
MDAxMDEwMDAwMDBaGA85OTk5MTIzMTIzNTk1OVowNDERMA8GA1UECgwIVGVzdCBP
cmcxHzAdBgNVBAMMFlRlc3QgT3JnIERldmVsb3BtZW50LTEwggEiMA0GCSqGSIb3
DQEBAQUAA4IBDwAwggEKAoIBAQC2k4Qz9y9+DDgn4bJjdz53OMMbjcpXKbWCk4Mn
IW2ufULsQBOMNaOM0XezbL0fSfZYBrAKm3MDdlMZczch9Dz4phKPtELG40eB4xni
/xKbm/bNJwoSD83K8qtJJT8HaXjX/Rr7zv/CtD/Z/jRFdeM93/LTwP5szErDfj/p
YGaWbrIHvOK9wbi0R7XFAxTcOx8EbhIh1JYOQ2CEwWSeao0r1ZjkELXFiob3OElX
I8o9QTdXrbD5w2azjQahiI/GP5ic3Lpr6Mrl+tM7DacpVyTgSGeD8emhc0THfWoF
ePofFYIk95jZBu9fWpBlfVojEq64YcgMycUKTCWSq8xO6GLhAgMBAAGjgZEwgY4w
HQYDVR0OBBYEFCz6fQW9f971AFChQnPqEeNzCYGFMGIGA1UdIwRbMFmAFGoHUzMH
8AddQ/ASCeU+nG+a3SfwoT6kPDA6MREwDwYDVQQKDAhUZXN0IE9yZzElMCMGA1UE
AwwcVGVzdCBPcmcgcmF1YyBDQSBEZXZlbG9wbWVudIIBATAJBgNVHRMEAjAAMA0G
CSqGSIb3DQEBCwUAA4IBAQCBKmI6dHVXWVQzad1MG7R5ojIrMFt+xCk74UFSLsKu
aOgCATSPCgb3f7r25CtpZH1YuK9golGOX+lUNYEk5XPeWowWrpVax3CSuostrvBC
pVRWLdlSGP+XHWOg0050Lh+//lJhxLoUI0ojqWH6sKDBjH30O65NLt57zm/ywN2x
Xk9hUsZ/gOS8rAPvvszPMbHCuuL4rW0Bj8Hp5ewjM0F3hNrBHDymDItNBVfx2hWQ
UaNwmKlEyd+uqXJfWk1iIObCHlMudsok3LRqq9aczZAkhiDcuTrMJvoP9q5mrzAm
4Qn4d526l24I0EyLEu3M78IsAt6k1M2AdbKig2wsJVwg
-----END CERTIFICATE-----
